target datalayout = "e-m:e-p270:32:32-p271:32:32-p272:64:64-i64:64-i128:128-f80:128-n8:16:32:64-S128"
target triple = "x86_64-pc-linux-gnu"

%struct.H5HF_free_section_t = type { %struct.H5FS_section_info_t, %union.anon }
%struct.H5FS_section_info_t = type { i64, i64, i32, i32 }
%union.anon = type { %struct.anon.1 }
%struct.anon.1 = type { %union.anon.2, i32, i32, i32, ptr, i32, i64, i32, i32, i32, ptr, i32, ptr }
%union.anon.2 = type { ptr }

@H5HF_init_g = external global i8, align 1
@H5_libterm_g = external global i8, align 1
@.str = private unnamed_addr constant [105 x i8] c"generated/home/dtcxzyw/WorkSpace/Projects/compilers/llvm-opt-benchmark/bench/hdf5/hdf5/src/H5HFsection.c\00", align 1
@H5E_HEAP_g = external global i64, align 8
@H5E_CANTRELEASE_g = external global i64, align 8
@.str.6 = private unnamed_addr constant [24 x i8] c"can't free section node\00", align 1
@.str.15 = private unnamed_addr constant [33 x i8] c"can't free indirect section node\00", align 1
@H5_H5HF_free_section_t_reg_free_list = internal global { i8, [3 x i8], i32, i32, [4 x i8], ptr, i64, ptr } { i8 0, [3 x i8] zeroinitializer, i32 0, i32 0, [4 x i8] zeroinitializer, ptr @.str.17, i64 112, ptr null }, align 8
@H5E_CANTDEC_g = external global i64, align 8
@.str.20 = private unnamed_addr constant [60 x i8] c"can't decrement reference count on section's indirect block\00", align 1
@__func__.H5HF__sect_node_free = private unnamed_addr constant [21 x i8] c"H5HF__sect_node_free\00", align 1
@__func__.H5HF__sect_indirect_shrink = private unnamed_addr constant [27 x i8] c"H5HF__sect_indirect_shrink\00", align 1
@H5E_CANTREMOVE_g = external global i64, align 8
@.str.44 = private unnamed_addr constant [42 x i8] c"can't remove section from heap free space\00", align 1
@.str.45 = private unnamed_addr constant [30 x i8] c"can't free child section node\00", align 1
@__func__.H5HF__sect_row_free_real = private unnamed_addr constant [25 x i8] c"H5HF__sect_row_free_real\00", align 1

; Function Attrs: nounwind uwtable
define internal i32 @H5HF__sect_node_free(ptr noundef %0, ptr noundef %1) #0 {
  %3 = alloca ptr, align 8
  %4 = alloca ptr, align 8
  %5 = alloca i32, align 4
  %6 = alloca i8, align 1
  store ptr %0, ptr %3, align 8, !tbaa !23
  store ptr %1, ptr %4, align 8, !tbaa !66
  call void @llvm.lifetime.start.p0(i64 4, ptr %5) #7
  store i32 0, ptr %5, align 4, !tbaa !11
  call void @llvm.lifetime.start.p0(i64 1, ptr %6) #7
  store i8 0, ptr %6, align 1, !tbaa !13
  %7 = load i8, ptr @H5HF_init_g, align 1, !tbaa !13, !range !15, !noundef !16
  %8 = trunc i8 %7 to i1
  br i1 %8, label %13, label %9

9:                                                ; preds = %2
  %10 = load i8, ptr @H5_libterm_g, align 1, !tbaa !13, !range !15, !noundef !16
  %11 = trunc i8 %10 to i1
  %12 = xor i1 %11, true
  br label %13

13:                                               ; preds = %9, %2
  %14 = phi i1 [ true, %2 ], [ %12, %9 ]
  %15 = xor i1 %14, true
  %16 = xor i1 %15, true
  %17 = zext i1 %16 to i32
  %18 = sext i32 %17 to i64
  %19 = call i64 @llvm.expect.i64(i64 %18, i64 1)
  %20 = icmp ne i64 %19, 0
  br i1 %20, label %21, label %52

21:                                               ; preds = %13
  %22 = load ptr, ptr %4, align 8, !tbaa !66
  %23 = icmp ne ptr %22, null
  br i1 %23, label %24, label %48

24:                                               ; preds = %21
  %25 = load ptr, ptr %4, align 8, !tbaa !66
  %26 = call i32 @H5HF__iblock_decr(ptr noundef %25)
  %27 = icmp slt i32 %26, 0
  br i1 %27, label %28, label %47

28:                                               ; preds = %24
  br label %29

29:                                               ; preds = %28
  br label %30

30:                                               ; preds = %29
  br label %31

31:                                               ; preds = %30
  %32 = load i64, ptr @H5E_HEAP_g, align 8, !tbaa !25
  %33 = load i64, ptr @H5E_CANTDEC_g, align 8, !tbaa !25
  %34 = call i32 (ptr, ptr, i32, i64, i64, ptr, ...) @H5E_printf_stack(ptr noundef @.str, ptr noundef @__func__.H5HF__sect_node_free, i32 noundef 413, i64 noundef %32, i64 noundef %33, ptr noundef @.str.20)
  br label %35

35:                                               ; preds = %31
  br label %36

36:                                               ; preds = %35
  store i8 1, ptr %6, align 1, !tbaa !13
  %37 = load i8, ptr %6, align 1, !tbaa !13, !range !15, !noundef !16
  %38 = trunc i8 %37 to i1
  %39 = zext i1 %38 to i8
  store i8 %39, ptr %6, align 1, !tbaa !13
  br label %40

40:                                               ; preds = %36
  br label %41

41:                                               ; preds = %40
  br label %42

42:                                               ; preds = %41
  store i32 -1, ptr %5, align 4, !tbaa !11
  br label %51

43:                                               ; No predecessors!
  br label %44

44:                                               ; preds = %43
  br label %45

45:                                               ; preds = %44
  br label %46

46:                                               ; preds = %45
  br label %47

47:                                               ; preds = %46, %24
  br label %48

48:                                               ; preds = %47, %21
  %49 = load ptr, ptr %3, align 8, !tbaa !23
  %50 = call ptr @H5FL_reg_free(ptr noundef @H5_H5HF_free_section_t_reg_free_list, ptr noundef %49)
  store ptr %50, ptr %3, align 8, !tbaa !23
  br label %51

51:                                               ; preds = %48, %42
  br label %52

52:                                               ; preds = %51, %13
  %53 = load i32, ptr %5, align 4, !tbaa !11
  call void @llvm.lifetime.end.p0(i64 1, ptr %6) #7
  call void @llvm.lifetime.end.p0(i64 4, ptr %5) #7
  ret i32 %53
}

; Function Attrs: nounwind uwtable
define internal i32 @H5HF__sect_row_free_real(ptr noundef %0) #0 {
  %2 = alloca ptr, align 8
  %3 = alloca i32, align 4
  %4 = alloca i8, align 1
  store ptr %0, ptr %2, align 8, !tbaa !23
  call void @llvm.lifetime.start.p0(i64 4, ptr %3) #7
  store i32 0, ptr %3, align 4, !tbaa !11
  call void @llvm.lifetime.start.p0(i64 1, ptr %4) #7
  store i8 0, ptr %4, align 1, !tbaa !13
  %5 = load i8, ptr @H5HF_init_g, align 1, !tbaa !13, !range !15, !noundef !16
  %6 = trunc i8 %5 to i1
  br i1 %6, label %11, label %7

7:                                                ; preds = %1
  %8 = load i8, ptr @H5_libterm_g, align 1, !tbaa !13, !range !15, !noundef !16
  %9 = trunc i8 %8 to i1
  %10 = xor i1 %9, true
  br label %11

11:                                               ; preds = %7, %1
  %12 = phi i1 [ true, %1 ], [ %10, %7 ]
  %13 = xor i1 %12, true
  %14 = xor i1 %13, true
  %15 = zext i1 %14 to i32
  %16 = sext i32 %15 to i64
  %17 = call i64 @llvm.expect.i64(i64 %16, i64 1)
  %18 = icmp ne i64 %17, 0
  br i1 %18, label %19, label %44

19:                                               ; preds = %11
  %20 = load ptr, ptr %2, align 8, !tbaa !23
  %21 = call i32 @H5HF__sect_node_free(ptr noundef %20, ptr noundef null)
  %22 = icmp slt i32 %21, 0
  br i1 %22, label %23, label %42

23:                                               ; preds = %19
  br label %24

24:                                               ; preds = %23
  br label %25

25:                                               ; preds = %24
  br label %26

26:                                               ; preds = %25
  %27 = load i64, ptr @H5E_HEAP_g, align 8, !tbaa !25
  %28 = load i64, ptr @H5E_CANTRELEASE_g, align 8, !tbaa !25
  %29 = call i32 (ptr, ptr, i32, i64, i64, ptr, ...) @H5E_printf_stack(ptr noundef @.str, ptr noundef @__func__.H5HF__sect_row_free_real, i32 noundef 1817, i64 noundef %27, i64 noundef %28, ptr noundef @.str.6)
  br label %30

30:                                               ; preds = %26
  br label %31

31:                                               ; preds = %30
  store i8 1, ptr %4, align 1, !tbaa !13
  %32 = load i8, ptr %4, align 1, !tbaa !13, !range !15, !noundef !16
  %33 = trunc i8 %32 to i1
  %34 = zext i1 %33 to i8
  store i8 %34, ptr %4, align 1, !tbaa !13
  br label %35

35:                                               ; preds = %31
  br label %36

36:                                               ; preds = %35
  br label %37

37:                                               ; preds = %36
  store i32 -1, ptr %3, align 4, !tbaa !11
  br label %43

38:                                               ; No predecessors!
  br label %39

39:                                               ; preds = %38
  br label %40

40:                                               ; preds = %39
  br label %41

41:                                               ; preds = %40
  br label %42

42:                                               ; preds = %41, %19
  br label %43

43:                                               ; preds = %42, %37
  br label %44

44:                                               ; preds = %43, %11
  %45 = load i32, ptr %3, align 4, !tbaa !11
  call void @llvm.lifetime.end.p0(i64 1, ptr %4) #7
  call void @llvm.lifetime.end.p0(i64 4, ptr %3) #7
  ret i32 %45
}

; Function Attrs: nounwind uwtable
define internal i32 @H5HF__sect_indirect_shrink(ptr noundef %0, ptr noundef %1) #0 {
  %3 = alloca ptr, align 8
  %4 = alloca ptr, align 8
  %5 = alloca i32, align 4
  %6 = alloca i32, align 4
  %7 = alloca i8, align 1
  store ptr %0, ptr %3, align 8, !tbaa !22
  store ptr %1, ptr %4, align 8, !tbaa !23
  call void @llvm.lifetime.start.p0(i64 4, ptr %5) #7
  call void @llvm.lifetime.start.p0(i64 4, ptr %6) #7
  store i32 0, ptr %6, align 4, !tbaa !11
  call void @llvm.lifetime.start.p0(i64 1, ptr %7) #7
  store i8 0, ptr %7, align 1, !tbaa !13
  %8 = load i8, ptr @H5HF_init_g, align 1, !tbaa !13, !range !15, !noundef !16
  %9 = trunc i8 %8 to i1
  br i1 %9, label %14, label %10

10:                                               ; preds = %2
  %11 = load i8, ptr @H5_libterm_g, align 1, !tbaa !13, !range !15, !noundef !16
  %12 = trunc i8 %11 to i1
  %13 = xor i1 %12, true
  br label %14

14:                                               ; preds = %10, %2
  %15 = phi i1 [ true, %2 ], [ %13, %10 ]
  %16 = xor i1 %15, true
  %17 = xor i1 %16, true
  %18 = zext i1 %17 to i32
  %19 = sext i32 %18 to i64
  %20 = call i64 @llvm.expect.i64(i64 %19, i64 1)
  %21 = icmp ne i64 %20, 0
  br i1 %21, label %22, label %177

22:                                               ; preds = %14
  store i32 0, ptr %5, align 4, !tbaa !11
  br label %23

23:                                               ; preds = %106, %22
  %24 = load i32, ptr %5, align 4, !tbaa !11
  %25 = load ptr, ptr %4, align 8, !tbaa !23
  %26 = getelementptr inbounds nuw %struct.H5HF_free_section_t, ptr %25, i32 0, i32 1
  %27 = getelementptr inbounds nuw %struct.anon.1, ptr %26, i32 0, i32 9
  %28 = load i32, ptr %27, align 8, !tbaa !63
  %29 = icmp ult i32 %24, %28
  br i1 %29, label %30, label %109

30:                                               ; preds = %23
  %31 = load ptr, ptr %4, align 8, !tbaa !23
  %32 = getelementptr inbounds nuw %struct.H5HF_free_section_t, ptr %31, i32 0, i32 1
  %33 = getelementptr inbounds nuw %struct.anon.1, ptr %32, i32 0, i32 10
  %34 = load ptr, ptr %33, align 8, !tbaa !63
  %35 = load i32, ptr %5, align 4, !tbaa !11
  %36 = zext i32 %35 to i64
  %37 = getelementptr inbounds nuw ptr, ptr %34, i64 %36
  %38 = load ptr, ptr %37, align 8, !tbaa !23
  %39 = getelementptr inbounds nuw %struct.H5HF_free_section_t, ptr %38, i32 0, i32 0
  %40 = getelementptr inbounds nuw %struct.H5FS_section_info_t, ptr %39, i32 0, i32 2
  %41 = load i32, ptr %40, align 8, !tbaa !27
  %42 = icmp ne i32 %41, 1
  br i1 %42, label %43, label %75

43:                                               ; preds = %30
  %44 = load ptr, ptr %3, align 8, !tbaa !22
  %45 = load ptr, ptr %4, align 8, !tbaa !23
  %46 = getelementptr inbounds nuw %struct.H5HF_free_section_t, ptr %45, i32 0, i32 1
  %47 = getelementptr inbounds nuw %struct.anon.1, ptr %46, i32 0, i32 10
  %48 = load ptr, ptr %47, align 8, !tbaa !63
  %49 = load i32, ptr %5, align 4, !tbaa !11
  %50 = zext i32 %49 to i64
  %51 = getelementptr inbounds nuw ptr, ptr %48, i64 %50
  %52 = load ptr, ptr %51, align 8, !tbaa !23
  %53 = call i32 @H5HF__space_remove(ptr noundef %44, ptr noundef %52)
  %54 = icmp slt i32 %53, 0
  br i1 %54, label %55, label %74

55:                                               ; preds = %43
  br label %56

56:                                               ; preds = %55
  br label %57

57:                                               ; preds = %56
  br label %58

58:                                               ; preds = %57
  %59 = load i64, ptr @H5E_HEAP_g, align 8, !tbaa !25
  %60 = load i64, ptr @H5E_CANTREMOVE_g, align 8, !tbaa !25
  %61 = call i32 (ptr, ptr, i32, i64, i64, ptr, ...) @H5E_printf_stack(ptr noundef @.str, ptr noundef @__func__.H5HF__sect_indirect_shrink, i32 noundef 3614, i64 noundef %59, i64 noundef %60, ptr noundef @.str.44)
  br label %62

62:                                               ; preds = %58
  br label %63

63:                                               ; preds = %62
  store i8 1, ptr %7, align 1, !tbaa !13
  %64 = load i8, ptr %7, align 1, !tbaa !13, !range !15, !noundef !16
  %65 = trunc i8 %64 to i1
  %66 = zext i1 %65 to i8
  store i8 %66, ptr %7, align 1, !tbaa !13
  br label %67

67:                                               ; preds = %63
  br label %68

68:                                               ; preds = %67
  br label %69

69:                                               ; preds = %68
  store i32 -1, ptr %6, align 4, !tbaa !11
  br label %176

70:                                               ; No predecessors!
  br label %71

71:                                               ; preds = %70
  br label %72

72:                                               ; preds = %71
  br label %73

73:                                               ; preds = %72
  br label %74

74:                                               ; preds = %73, %43
  br label %75

75:                                               ; preds = %74, %30
  %76 = load ptr, ptr %4, align 8, !tbaa !23
  %77 = getelementptr inbounds nuw %struct.H5HF_free_section_t, ptr %76, i32 0, i32 1
  %78 = getelementptr inbounds nuw %struct.anon.1, ptr %77, i32 0, i32 10
  %79 = load ptr, ptr %78, align 8, !tbaa !63
  %80 = load i32, ptr %5, align 4, !tbaa !11
  %81 = zext i32 %80 to i64
  %82 = getelementptr inbounds nuw ptr, ptr %79, i64 %81
  %83 = load ptr, ptr %82, align 8, !tbaa !23
  %84 = call i32 @H5HF__sect_row_free_real(ptr noundef %83)
  %85 = icmp slt i32 %84, 0
  br i1 %85, label %86, label %105

86:                                               ; preds = %75
  br label %87

87:                                               ; preds = %86
  br label %88

88:                                               ; preds = %87
  br label %89

89:                                               ; preds = %88
  %90 = load i64, ptr @H5E_HEAP_g, align 8, !tbaa !25
  %91 = load i64, ptr @H5E_CANTRELEASE_g, align 8, !tbaa !25
  %92 = call i32 (ptr, ptr, i32, i64, i64, ptr, ...) @H5E_printf_stack(ptr noundef @.str, ptr noundef @__func__.H5HF__sect_indirect_shrink, i32 noundef 3619, i64 noundef %90, i64 noundef %91, ptr noundef @.str.45)
  br label %93

93:                                               ; preds = %89
  br label %94

94:                                               ; preds = %93
  store i8 1, ptr %7, align 1, !tbaa !13
  %95 = load i8, ptr %7, align 1, !tbaa !13, !range !15, !noundef !16
  %96 = trunc i8 %95 to i1
  %97 = zext i1 %96 to i8
  store i8 %97, ptr %7, align 1, !tbaa !13
  br label %98

98:                                               ; preds = %94
  br label %99

99:                                               ; preds = %98
  br label %100

100:                                              ; preds = %99
  store i32 -1, ptr %6, align 4, !tbaa !11
  br label %176

101:                                              ; No predecessors!
  br label %102

102:                                              ; preds = %101
  br label %103

103:                                              ; preds = %102
  br label %104

104:                                              ; preds = %103
  br label %105

105:                                              ; preds = %104, %75
  br label %106

106:                                              ; preds = %105
  %107 = load i32, ptr %5, align 4, !tbaa !11
  %108 = add i32 %107, 1
  store i32 %108, ptr %5, align 4, !tbaa !11
  br label %23, !llvm.loop !106

109:                                              ; preds = %23
  store i32 0, ptr %5, align 4, !tbaa !11
  br label %110

110:                                              ; preds = %149, %109
  %111 = load i32, ptr %5, align 4, !tbaa !11
  %112 = load ptr, ptr %4, align 8, !tbaa !23
  %113 = getelementptr inbounds nuw %struct.H5HF_free_section_t, ptr %112, i32 0, i32 1
  %114 = getelementptr inbounds nuw %struct.anon.1, ptr %113, i32 0, i32 11
  %115 = load i32, ptr %114, align 8, !tbaa !63
  %116 = icmp ult i32 %111, %115
  br i1 %116, label %117, label %152

117:                                              ; preds = %110
  %118 = load ptr, ptr %3, align 8, !tbaa !22
  %119 = load ptr, ptr %4, align 8, !tbaa !23
  %120 = getelementptr inbounds nuw %struct.H5HF_free_section_t, ptr %119, i32 0, i32 1
  %121 = getelementptr inbounds nuw %struct.anon.1, ptr %120, i32 0, i32 12
  %122 = load ptr, ptr %121, align 8, !tbaa !63
  %123 = load i32, ptr %5, align 4, !tbaa !11
  %124 = zext i32 %123 to i64
  %125 = getelementptr inbounds nuw ptr, ptr %122, i64 %124
  %126 = load ptr, ptr %125, align 8, !tbaa !23
  %127 = call i32 @H5HF__sect_indirect_shrink(ptr noundef %118, ptr noundef %126)
  %128 = icmp slt i32 %127, 0
  br i1 %128, label %129, label %148

129:                                              ; preds = %117
  br label %130

130:                                              ; preds = %129
  br label %131

131:                                              ; preds = %130
  br label %132

132:                                              ; preds = %131
  %133 = load i64, ptr @H5E_HEAP_g, align 8, !tbaa !25
  %134 = load i64, ptr @H5E_CANTRELEASE_g, align 8, !tbaa !25
  %135 = call i32 (ptr, ptr, i32, i64, i64, ptr, ...) @H5E_printf_stack(ptr noundef @.str, ptr noundef @__func__.H5HF__sect_indirect_shrink, i32 noundef 3625, i64 noundef %133, i64 noundef %134, ptr noundef @.str.45)
  br label %136

136:                                              ; preds = %132
  br label %137

137:                                              ; preds = %136
  store i8 1, ptr %7, align 1, !tbaa !13
  %138 = load i8, ptr %7, align 1, !tbaa !13, !range !15, !noundef !16
  %139 = trunc i8 %138 to i1
  %140 = zext i1 %139 to i8
  store i8 %140, ptr %7, align 1, !tbaa !13
  br label %141

141:                                              ; preds = %137
  br label %142

142:                                              ; preds = %141
  br label %143

143:                                              ; preds = %142
  store i32 -1, ptr %6, align 4, !tbaa !11
  br label %176

144:                                              ; No predecessors!
  br label %145

145:                                              ; preds = %144
  br label %146

146:                                              ; preds = %145
  br label %147

147:                                              ; preds = %146
  br label %148

148:                                              ; preds = %147, %117
  br label %149

149:                                              ; preds = %148
  %150 = load i32, ptr %5, align 4, !tbaa !11
  %151 = add i32 %150, 1
  store i32 %151, ptr %5, align 4, !tbaa !11
  br label %110, !llvm.loop !107

152:                                              ; preds = %110
  %153 = load ptr, ptr %4, align 8, !tbaa !23
  %154 = call i32 @H5HF__sect_indirect_free(ptr noundef %153)
  %155 = icmp slt i32 %154, 0
  br i1 %155, label %156, label %175

156:                                              ; preds = %152
  br label %157

157:                                              ; preds = %156
  br label %158

158:                                              ; preds = %157
  br label %159

159:                                              ; preds = %158
  %160 = load i64, ptr @H5E_HEAP_g, align 8, !tbaa !25
  %161 = load i64, ptr @H5E_CANTRELEASE_g, align 8, !tbaa !25
  %162 = call i32 (ptr, ptr, i32, i64, i64, ptr, ...) @H5E_printf_stack(ptr noundef @.str, ptr noundef @__func__.H5HF__sect_indirect_shrink, i32 noundef 3629, i64 noundef %160, i64 noundef %161, ptr noundef @.str.15)
  br label %163

163:                                              ; preds = %159
  br label %164

164:                                              ; preds = %163
  store i8 1, ptr %7, align 1, !tbaa !13
  %165 = load i8, ptr %7, align 1, !tbaa !13, !range !15, !noundef !16
  %166 = trunc i8 %165 to i1
  %167 = zext i1 %166 to i8
  store i8 %167, ptr %7, align 1, !tbaa !13
  br label %168

168:                                              ; preds = %164
  br label %169

169:                                              ; preds = %168
  br label %170

170:                                              ; preds = %169
  store i32 -1, ptr %6, align 4, !tbaa !11
  br label %176

171:                                              ; No predecessors!
  br label %172

172:                                              ; preds = %171
  br label %173

173:                                              ; preds = %172
  br label %174

174:                                              ; preds = %173
  br label %175

175:                                              ; preds = %174, %152
  br label %176

176:                                              ; preds = %175, %170, %143, %100, %69
  br label %177

177:                                              ; preds = %176, %14
  %178 = load i32, ptr %6, align 4, !tbaa !11
  call void @llvm.lifetime.end.p0(i64 1, ptr %7) #7
  call void @llvm.lifetime.end.p0(i64 4, ptr %6) #7
  call void @llvm.lifetime.end.p0(i64 4, ptr %5) #7
  ret i32 %178
}