; Function Attrs: nounwind uwtable
define internal fastcc range(i32 -1, 1) i32 @H5HF__sect_indirect_shrink(ptr noundef %0, ptr noundef %1) unnamed_addr #0 {
  %3 = load i8, ptr @H5HF_init_g, align 1, !tbaa !3, !range !7, !noundef !8
  %4 = trunc nuw i8 %3 to i1
  %5 = load i8, ptr @H5_libterm_g, align 1, !range !7
  %6 = trunc nuw i8 %5 to i1
  %7 = xor i1 %6, true
  %8 = select i1 %4, i1 true, i1 %7
  br i1 %8, label %.preheader22, label %62, !prof !9

.preheader22:                                     ; preds = %2
  %9 = getelementptr inbounds nuw i8, ptr %1, i64 80
  %10 = load i32, ptr %9, align 8, !tbaa !26
  %.not26 = icmp eq i32 %10, 0
  br i1 %.not26, label %.preheader, label %.lr.ph

.lr.ph:                                           ; preds = %.preheader22
  %11 = getelementptr inbounds nuw i8, ptr %1, i64 88
  br label %15

.preheader:                                       ; preds = %H5HF__sect_row_free_real.exit, %.preheader22
  %12 = getelementptr inbounds nuw i8, ptr %1, i64 96
  %13 = load i32, ptr %12, align 8, !tbaa !26
  %.not27 = icmp eq i32 %13, 0
  br i1 %.not27, label %._crit_edge, label %.lr.ph25

.lr.ph25:                                         ; preds = %.preheader
  %14 = getelementptr inbounds nuw i8, ptr %1, i64 104
  br label %46

15:                                               ; preds = %.lr.ph, %H5HF__sect_row_free_real.exit
  %indvars.iv = phi i64 [ 0, %.lr.ph ], [ %indvars.iv.next, %H5HF__sect_row_free_real.exit ]
  %16 = load ptr, ptr %11, align 8, !tbaa !26
  %17 = getelementptr inbounds nuw ptr, ptr %16, i64 %indvars.iv
  %18 = load ptr, ptr %17, align 8, !tbaa !16
  %19 = getelementptr inbounds nuw i8, ptr %18, i64 16
  %20 = load i32, ptr %19, align 8, !tbaa !20
  %.not = icmp eq i32 %20, 1
  br i1 %.not, label %28, label %21

21:                                               ; preds = %15
  %22 = tail call i32 @H5HF__space_remove(ptr noundef %0, ptr noundef nonnull %18) #13
  %23 = icmp slt i32 %22, 0
  br i1 %23, label %24, label %28

24:                                               ; preds = %21
  %25 = load i64, ptr @H5E_HEAP_g, align 8, !tbaa !18
  %26 = load i64, ptr @H5E_CANTREMOVE_g, align 8, !tbaa !18
  %27 = tail call i32 (ptr, ptr, i32, i64, i64, ptr, ...) @H5E_printf_stack(ptr noundef nonnull @.str, ptr noundef nonnull @__func__.H5HF__sect_indirect_shrink, i32 noundef 3614, i64 noundef %25, i64 noundef %26, ptr noundef nonnull @.str.44) #13
  br label %62

28:                                               ; preds = %21, %15
  %29 = load i8, ptr @H5HF_init_g, align 1, !tbaa !3, !range !7, !noundef !8
  %30 = trunc nuw i8 %29 to i1
  %31 = load i8, ptr @H5_libterm_g, align 1, !range !7
  %32 = trunc nuw i8 %31 to i1
  %33 = xor i1 %32, true
  %34 = select i1 %30, i1 true, i1 %33
  br i1 %34, label %H5HF__sect_node_free.exit.i, label %H5HF__sect_row_free_real.exit, !prof !9

H5HF__sect_node_free.exit.i:                      ; preds = %28
  %35 = load ptr, ptr %11, align 8, !tbaa !26
  %36 = getelementptr inbounds nuw ptr, ptr %35, i64 %indvars.iv
  %37 = load ptr, ptr %36, align 8, !tbaa !16
  %38 = tail call ptr @H5FL_reg_free(ptr noundef nonnull @H5_H5HF_free_section_t_reg_free_list, ptr noundef %37) #13
  br label %H5HF__sect_row_free_real.exit

H5HF__sect_row_free_real.exit:                    ; preds = %H5HF__sect_node_free.exit.i, %28
  %indvars.iv.next = add nuw nsw i64 %indvars.iv, 1
  %39 = load i32, ptr %9, align 8, !tbaa !26
  %40 = zext i32 %39 to i64
  %41 = icmp samesign ult i64 %indvars.iv.next, %40
  br i1 %41, label %15, label %.preheader, !llvm.loop !91

42:                                               ; preds = %46
  %indvars.iv.next30 = add nuw nsw i64 %indvars.iv29, 1
  %43 = load i32, ptr %12, align 8, !tbaa !26
  %44 = zext i32 %43 to i64
  %45 = icmp samesign ult i64 %indvars.iv.next30, %44
  br i1 %45, label %46, label %._crit_edge, !llvm.loop !92

46:                                               ; preds = %.lr.ph25, %42
  %indvars.iv29 = phi i64 [ 0, %.lr.ph25 ], [ %indvars.iv.next30, %42 ]
  %47 = load ptr, ptr %14, align 8, !tbaa !26
  %48 = getelementptr inbounds nuw ptr, ptr %47, i64 %indvars.iv29
  %49 = load ptr, ptr %48, align 8, !tbaa !16
  %50 = tail call fastcc i32 @H5HF__sect_indirect_shrink(ptr noundef %0, ptr noundef %49)
  %51 = icmp slt i32 %50, 0
  br i1 %51, label %52, label %42

52:                                               ; preds = %46
  %53 = load i64, ptr @H5E_HEAP_g, align 8, !tbaa !18
  %54 = load i64, ptr @H5E_CANTRELEASE_g, align 8, !tbaa !18
  %55 = tail call i32 (ptr, ptr, i32, i64, i64, ptr, ...) @H5E_printf_stack(ptr noundef nonnull @.str, ptr noundef nonnull @__func__.H5HF__sect_indirect_shrink, i32 noundef 3625, i64 noundef %53, i64 noundef %54, ptr noundef nonnull @.str.45) #13
  br label %62

._crit_edge:                                      ; preds = %42, %.preheader
  %56 = tail call fastcc i32 @H5HF__sect_indirect_free(ptr noundef nonnull %1)
  %57 = icmp slt i32 %56, 0
  br i1 %57, label %58, label %62

58:                                               ; preds = %._crit_edge
  %59 = load i64, ptr @H5E_HEAP_g, align 8, !tbaa !18
  %60 = load i64, ptr @H5E_CANTRELEASE_g, align 8, !tbaa !18
  %61 = tail call i32 (ptr, ptr, i32, i64, i64, ptr, ...) @H5E_printf_stack(ptr noundef nonnull @.str, ptr noundef nonnull @__func__.H5HF__sect_indirect_shrink, i32 noundef 3629, i64 noundef %59, i64 noundef %60, ptr noundef nonnull @.str.15) #13
  br label %62

62:                                               ; preds = %24, %52, %58, %._crit_edge, %2
  %.0 = phi i32 [ -1, %24 ], [ -1, %52 ], [ -1, %58 ], [ 0, %._crit_edge ], [ 0, %2 ]
  ret i32 %.0
}